; Function Attrs: mustprogress nounwind uwtable
define hidden void @_ZNK5clang7targets15LanaiTargetInfo16getTargetDefinesERKNS_11LangOptionsERNS_12MacroBuilderE(ptr nocapture noundef nonnull readonly align 8 dereferenceable(496) %0, ptr nocapture nonnull readnone align 8 %1, ptr noundef nonnull align 8 dereferenceable(8) %2) unnamed_addr #3 align 2 {
  %4 = alloca %"class.llvm::Twine", align 8
  %5 = alloca %"class.llvm::Twine", align 8
  %6 = alloca %"class.llvm::Twine", align 8
  %7 = alloca %"class.llvm::Twine", align 8
  %8 = getelementptr inbounds nuw i8, ptr %4, i64 32
  %9 = getelementptr inbounds nuw i8, ptr %4, i64 33
  store i8 1, ptr %9, align 1
  store ptr @.str.41, ptr %4, align 8
  store i8 3, ptr %8, align 8
  %10 = getelementptr inbounds nuw i8, ptr %5, i64 32
  %11 = getelementptr inbounds nuw i8, ptr %5, i64 33
  store i8 1, ptr %11, align 1
  store ptr @.str.42, ptr %5, align 8
  store i8 3, ptr %10, align 8
  call void @_ZN5clang12MacroBuilder11defineMacroERKN4llvm5TwineES4_(ptr noundef nonnull align 8 dereferenceable(8) %2, ptr noundef nonnull align 8 dereferenceable(34) %4, ptr noundef nonnull align 8 dereferenceable(34) %5)
  %12 = getelementptr inbounds nuw i8, ptr %0, i64 492
  %13 = load i32, ptr %12, align 4
  %cond = icmp eq i32 %13, 1
  br i1 %cond, label %14, label %19

14:                                               ; preds = %3
  %15 = getelementptr inbounds nuw i8, ptr %6, i64 32
  %16 = getelementptr inbounds nuw i8, ptr %6, i64 33
  store i8 1, ptr %16, align 1
  store ptr @.str.43, ptr %6, align 8
  store i8 3, ptr %15, align 8
  %17 = getelementptr inbounds nuw i8, ptr %7, i64 32
  %18 = getelementptr inbounds nuw i8, ptr %7, i64 33
  store i8 1, ptr %18, align 1
  store ptr @.str.42, ptr %7, align 8
  store i8 3, ptr %17, align 8
  call void @_ZN5clang12MacroBuilder11defineMacroERKN4llvm5TwineES4_(ptr noundef nonnull align 8 dereferenceable(8) %2, ptr noundef nonnull align 8 dereferenceable(34) %6, ptr noundef nonnull align 8 dereferenceable(34) %7)
  br label %19

19:                                               ; preds = %3, %14
  ret void
}